target datalayout = "e-m:e-p270:32:32-p271:32:32-p272:64:64-i64:64-i128:128-f80:128-n8:16:32:64-S128"
target triple = "x86_64-pc-linux-gnu"

%"class.cv::(anonymous namespace)::ufixedpoint16" = type { i16 }

; Function Attrs: inlinehint mustprogress nounwind uwtable
define internal noundef zeroext i8 @_ZN2cvL13saturate_castIhEET_i(i32 noundef %0) #9 {
  %2 = alloca i32, align 4
  store i32 %0, ptr %2, align 4, !tbaa !10
  %3 = load i32, ptr %2, align 4, !tbaa !10
  %4 = icmp ule i32 %3, 255
  br i1 %4, label %5, label %7

5:                                                ; preds = %1
  %6 = load i32, ptr %2, align 4, !tbaa !10
  br label %11

7:                                                ; preds = %1
  %8 = load i32, ptr %2, align 4, !tbaa !10
  %9 = icmp sgt i32 %8, 0
  %10 = select i1 %9, i32 255, i32 0
  br label %11

11:                                               ; preds = %7, %5
  %12 = phi i32 [ %6, %5 ], [ %10, %7 ]
  %13 = trunc i32 %12 to i8
  ret i8 %13
}

; Function Attrs: alwaysinline mustprogress nounwind uwtable
define internal noundef zeroext i16 @_ZN2cv12_GLOBAL__N_113ufixedpoint1610fixedroundERKt(ptr noundef nonnull align 2 dereferenceable(2) %0) #17 align 2 {
  %2 = alloca ptr, align 8
  store ptr %0, ptr %2, align 8, !tbaa !8
  %3 = load ptr, ptr %2, align 8, !tbaa !8
  %4 = load i16, ptr %3, align 2, !tbaa !236
  %5 = zext i16 %4 to i32
  %6 = add nsw i32 %5, 128
  %7 = trunc i32 %6 to i16
  ret i16 %7
}

; Function Attrs: alwaysinline mustprogress uwtable
define internal noundef zeroext i8 @_ZNK2cv12_GLOBAL__N_113ufixedpoint1613saturate_castIhEET_v(ptr noundef nonnull align 2 dereferenceable(2) %0) #19 align 2 {
  %2 = alloca ptr, align 8
  store ptr %0, ptr %2, align 8, !tbaa !204
  %3 = load ptr, ptr %2, align 8
  %4 = getelementptr inbounds nuw %"class.cv::(anonymous namespace)::ufixedpoint16", ptr %3, i32 0, i32 0
  %5 = call noundef zeroext i16 @_ZN2cv12_GLOBAL__N_113ufixedpoint1610fixedroundERKt(ptr noundef nonnull align 2 dereferenceable(2) %4)
  %6 = zext i16 %5 to i32
  %7 = ashr i32 %6, 8
  %8 = call noundef zeroext i8 @_ZN2cvL13saturate_castIhEET_i(i32 noundef %7)
  ret i8 %8
}

; Function Attrs: alwaysinline mustprogress uwtable
define internal noundef zeroext i8 @_ZNK2cv12_GLOBAL__N_113ufixedpoint16cvhEv(ptr noundef nonnull align 2 dereferenceable(2) %0) #19 align 2 {
  %2 = alloca ptr, align 8
  store ptr %0, ptr %2, align 8, !tbaa !204
  %3 = load ptr, ptr %2, align 8
  %4 = call noundef zeroext i8 @_ZNK2cv12_GLOBAL__N_113ufixedpoint1613saturate_castIhEET_v(ptr noundef nonnull align 2 dereferenceable(2) %3)
  ret i8 %4
}

; Function Attrs: mustprogress uwtable
define internal void @_ZN2cv12cpu_baseline12_GLOBAL__N_114vlineSmooth1N1IhNS_12_GLOBAL__N_113ufixedpoint16EEEvPKPKT0_S7_iPT_i(ptr noundef %0, ptr noundef %1, i32 noundef %2, ptr noundef %3, i32 noundef %4) #4 {
  %6 = alloca ptr, align 8
  %7 = alloca ptr, align 8
  %8 = alloca i32, align 4
  %9 = alloca ptr, align 8
  %10 = alloca i32, align 4
  %11 = alloca ptr, align 8
  %12 = alloca i32, align 4
  store ptr %0, ptr %6, align 8, !tbaa !311
  store ptr %1, ptr %7, align 8, !tbaa !204
  store i32 %2, ptr %8, align 4, !tbaa !10
  store ptr %3, ptr %9, align 8, !tbaa !82
  store i32 %4, ptr %10, align 4, !tbaa !10
  call void @llvm.lifetime.start.p0(i64 8, ptr %11) #3
  %13 = load ptr, ptr %6, align 8, !tbaa !311
  %14 = getelementptr inbounds ptr, ptr %13, i64 0
  %15 = load ptr, ptr %14, align 8, !tbaa !204
  store ptr %15, ptr %11, align 8, !tbaa !204
  call void @llvm.lifetime.start.p0(i64 4, ptr %12) #3
  store i32 0, ptr %12, align 4, !tbaa !10
  br label %16

16:                                               ; preds = %30, %5
  %17 = load i32, ptr %12, align 4, !tbaa !10
  %18 = load i32, ptr %10, align 4, !tbaa !10
  %19 = icmp slt i32 %17, %18
  br i1 %19, label %20, label %33

20:                                               ; preds = %16
  %21 = load ptr, ptr %11, align 8, !tbaa !204
  %22 = load i32, ptr %12, align 4, !tbaa !10
  %23 = sext i32 %22 to i64
  %24 = getelementptr inbounds %"class.cv::(anonymous namespace)::ufixedpoint16", ptr %21, i64 %23
  %25 = call noundef zeroext i8 @_ZNK2cv12_GLOBAL__N_113ufixedpoint16cvhEv(ptr noundef nonnull align 2 dereferenceable(2) %24)
  %26 = load ptr, ptr %9, align 8, !tbaa !82
  %27 = load i32, ptr %12, align 4, !tbaa !10
  %28 = sext i32 %27 to i64
  %29 = getelementptr inbounds i8, ptr %26, i64 %28
  store i8 %25, ptr %29, align 1, !tbaa !42
  br label %30

30:                                               ; preds = %20
  %31 = load i32, ptr %12, align 4, !tbaa !10
  %32 = add nsw i32 %31, 1
  store i32 %32, ptr %12, align 4, !tbaa !10
  br label %16, !llvm.loop !313

33:                                               ; preds = %16
  call void @llvm.lifetime.end.p0(i64 4, ptr %12) #3
  call void @llvm.lifetime.end.p0(i64 8, ptr %11) #3
  ret void
}