; Function Attrs: mustprogress nofree norecurse nosync nounwind memory(read, argmem: readwrite, inaccessiblemem: none) uwtable
define internal void @_ZN2cv12cpu_baseline12_GLOBAL__N_114vlineSmooth1N1IhNS_12_GLOBAL__N_113ufixedpoint16EEEvPKPKT0_S7_iPT_i(ptr noundef readonly captures(none) %0, ptr readnone captures(none) %1, i32 %2, ptr noundef writeonly captures(none) %3, i32 noundef %4) #17 {
  %6 = load ptr, ptr %0, align 8, !tbaa !901
  %7 = icmp sgt i32 %4, 0
  br i1 %7, label %.lr.ph.preheader, label %._crit_edge

.lr.ph.preheader:                                 ; preds = %5
  %wide.trip.count = zext nneg i32 %4 to i64
  br label %.lr.ph

.lr.ph:                                           ; preds = %.lr.ph.preheader, %.lr.ph
  %indvars.iv = phi i64 [ 0, %.lr.ph.preheader ], [ %indvars.iv.next, %.lr.ph ]
  %8 = getelementptr inbounds nuw %"class.cv::(anonymous namespace)::ufixedpoint16", ptr %6, i64 %indvars.iv
  %9 = load i16, ptr %8, align 2, !tbaa !400
  %10 = add i16 %9, 128
  %11 = lshr i16 %10, 8
  %12 = trunc nuw i16 %11 to i8
  %13 = getelementptr inbounds nuw i8, ptr %3, i64 %indvars.iv
  store i8 %12, ptr %13, align 1, !tbaa !282
  %indvars.iv.next = add nuw nsw i64 %indvars.iv, 1
  %exitcond.not = icmp eq i64 %indvars.iv.next, %wide.trip.count
  br i1 %exitcond.not, label %._crit_edge, label %.lr.ph, !llvm.loop !902

._crit_edge:                                      ; preds = %.lr.ph, %5
  ret void
}